target datalayout = "e-m:e-p270:32:32-p271:32:32-p272:64:64-i64:64-i128:128-f80:128-n8:16:32:64-S128"
target triple = "x86_64-pc-linux-gnu"

%struct.H5O_msg_class_t = type { i32, ptr, i64, i32, ptr, ptr, ptr, ptr, ptr, ptr, ptr, ptr, ptr, ptr, ptr, ptr, ptr, ptr, ptr, ptr }
%struct.H5O_ainfo_t = type { i8, i8, i32, i64, i64, i64, i64 }
%struct.H5O_mesg_operator_t = type { i32, %union.anon.0 }
%union.anon.0 = type { ptr }
%struct.H5O_loc_t = type { ptr, i64, i8 }
%struct.H5O_t = type { %struct.H5C_cache_entry_t, i64, i64, i8, i64, i8, i32, i8, i8, i64, i64, i64, i64, i32, i32, i64, i64, ptr, i64, i64, i64, i64, ptr, i8, ptr }
%struct.H5C_cache_entry_t = type { ptr, i64, i64, ptr, i8, ptr, i8, i8, i8, i8, i32, i8, i8, i8, i8, i8, i32, ptr, i32, i32, i32, i32, i32, i8, i8, ptr, ptr, ptr, ptr, ptr, ptr, i8, i32, i8, i64, ptr, i64, i64, i32, i8, i32, i32, i8, ptr, ptr, ptr }
%struct.H5O_iter_ren_t = type { ptr, ptr, ptr, i8 }

@.str = private unnamed_addr constant [106 x i8] c"generated/home/dtcxzyw/WorkSpace/Projects/compilers/llvm-opt-benchmark/bench/hdf5/hdf5/src/H5Oattribute.c\00", align 1
@H5E_ATTR_g = external global i64, align 8
@H5E_CANTPIN_g = external global i64, align 8
@.str.1 = private unnamed_addr constant [28 x i8] c"unable to pin object header\00", align 1
@H5E_CANTGET_g = external global i64, align 8
@.str.3 = private unnamed_addr constant [39 x i8] c"can't check for attribute info message\00", align 1
@H5O_MSG_ATTR = external constant [1 x %struct.H5O_msg_class_t], align 16
@H5E_CANTUPDATE_g = external global i64, align 8
@.str.15 = private unnamed_addr constant [32 x i8] c"unable to update time on object\00", align 1
@H5E_CANTUNPIN_g = external global i64, align 8
@.str.16 = private unnamed_addr constant [30 x i8] c"unable to unpin object header\00", align 1
@.str.21 = private unnamed_addr constant [25 x i8] c"error updating attribute\00", align 1
@H5E_NOTFOUND_g = external global i64, align 8
@__func__.H5O__attr_rename = private unnamed_addr constant [17 x i8] c"H5O__attr_rename\00", align 1
@H5E_EXISTS_g = external global i64, align 8
@.str.34 = private unnamed_addr constant [39 x i8] c"attribute with new name already exists\00", align 1
@.str.35 = private unnamed_addr constant [37 x i8] c"can't locate attribute with old name\00", align 1

; Function Attrs: nounwind uwtable
define i32 @H5O__attr_rename(ptr noundef %0, ptr noundef %1, ptr noundef %2) #0 {
  %4 = alloca ptr, align 8
  %5 = alloca ptr, align 8
  %6 = alloca ptr, align 8
  %7 = alloca ptr, align 8
  %8 = alloca %struct.H5O_ainfo_t, align 8
  %9 = alloca i32, align 4
  %10 = alloca i64, align 8
  %11 = alloca i8, align 1
  %12 = alloca %struct.H5O_iter_ren_t, align 8
  %13 = alloca %struct.H5O_mesg_operator_t, align 8
  store ptr %0, ptr %4, align 8
  store ptr %1, ptr %5, align 8
  store ptr %2, ptr %6, align 8
  store ptr null, ptr %7, align 8
  store i32 0, ptr %9, align 4
  store i64 -1, ptr %10, align 8
  store i8 0, ptr %11, align 1
  %14 = load ptr, ptr %4, align 8
  %15 = getelementptr inbounds %struct.H5O_loc_t, ptr %14, i32 0, i32 1
  %16 = load i64, ptr %15, align 8
  call void @H5AC_tag(i64 noundef %16, ptr noundef %10)
  %17 = load ptr, ptr %4, align 8
  %18 = call ptr @H5O_pin(ptr noundef %17)
  store ptr %18, ptr %7, align 8
  %19 = icmp eq ptr null, %18
  br i1 %19, label %20, label %35

20:                                               ; preds = %3
  br label %21

21:                                               ; preds = %20
  br label %22

22:                                               ; preds = %21
  br label %23

23:                                               ; preds = %22
  %24 = load i64, ptr @H5E_ATTR_g, align 8
  %25 = load i64, ptr @H5E_CANTPIN_g, align 8
  %26 = call i32 (ptr, ptr, i32, i64, i64, ptr, ...) @H5E_printf_stack(ptr noundef @.str, ptr noundef @__func__.H5O__attr_rename, i32 noundef 1110, i64 noundef %24, i64 noundef %25, ptr noundef @.str.1)
  br label %27

27:                                               ; preds = %23
  store i8 1, ptr %11, align 1
  %28 = load i8, ptr %11, align 1
  %29 = trunc i8 %28 to i1
  %30 = zext i1 %29 to i8
  store i8 %30, ptr %11, align 1
  br label %31

31:                                               ; preds = %27
  br label %32

32:                                               ; preds = %31
  store i32 -1, ptr %9, align 4
  br label %212

33:                                               ; No predecessors!
  br label %34

34:                                               ; preds = %33
  br label %35

35:                                               ; preds = %34, %3
  %36 = getelementptr inbounds %struct.H5O_ainfo_t, ptr %8, i32 0, i32 5
  store i64 -1, ptr %36, align 8
  %37 = load ptr, ptr %7, align 8
  %38 = getelementptr inbounds %struct.H5O_t, ptr %37, i32 0, i32 7
  %39 = load i8, ptr %38, align 8
  %40 = zext i8 %39 to i32
  %41 = icmp sgt i32 %40, 1
  br i1 %41, label %42, label %65

42:                                               ; preds = %35
  %43 = load ptr, ptr %4, align 8
  %44 = getelementptr inbounds %struct.H5O_loc_t, ptr %43, i32 0, i32 0
  %45 = load ptr, ptr %44, align 8
  %46 = load ptr, ptr %7, align 8
  %47 = call i32 @H5A__get_ainfo(ptr noundef %45, ptr noundef %46, ptr noundef %8)
  %48 = icmp slt i32 %47, 0
  br i1 %48, label %49, label %64

49:                                               ; preds = %42
  br label %50

50:                                               ; preds = %49
  br label %51

51:                                               ; preds = %50
  br label %52

52:                                               ; preds = %51
  %53 = load i64, ptr @H5E_ATTR_g, align 8
  %54 = load i64, ptr @H5E_CANTGET_g, align 8
  %55 = call i32 (ptr, ptr, i32, i64, i64, ptr, ...) @H5E_printf_stack(ptr noundef @.str, ptr noundef @__func__.H5O__attr_rename, i32 noundef 1117, i64 noundef %53, i64 noundef %54, ptr noundef @.str.3)
  br label %56

56:                                               ; preds = %52
  store i8 1, ptr %11, align 1
  %57 = load i8, ptr %11, align 1
  %58 = trunc i8 %57 to i1
  %59 = zext i1 %58 to i8
  store i8 %59, ptr %11, align 1
  br label %60

60:                                               ; preds = %56
  br label %61

61:                                               ; preds = %60
  store i32 -1, ptr %9, align 4
  br label %212

62:                                               ; No predecessors!
  br label %63

63:                                               ; preds = %62
  br label %64

64:                                               ; preds = %63, %42
  br label %65

65:                                               ; preds = %64, %35
  %66 = getelementptr inbounds %struct.H5O_ainfo_t, ptr %8, i32 0, i32 5
  %67 = load i64, ptr %66, align 8
  %68 = icmp ne i64 %67, -1
  br i1 %68, label %69, label %93

69:                                               ; preds = %65
  %70 = load ptr, ptr %4, align 8
  %71 = getelementptr inbounds %struct.H5O_loc_t, ptr %70, i32 0, i32 0
  %72 = load ptr, ptr %71, align 8
  %73 = load ptr, ptr %5, align 8
  %74 = load ptr, ptr %6, align 8
  %75 = call i32 @H5A__dense_rename(ptr noundef %72, ptr noundef %8, ptr noundef %73, ptr noundef %74)
  %76 = icmp slt i32 %75, 0
  br i1 %76, label %77, label %92

77:                                               ; preds = %69
  br label %78

78:                                               ; preds = %77
  br label %79

79:                                               ; preds = %78
  br label %80

80:                                               ; preds = %79
  %81 = load i64, ptr @H5E_ATTR_g, align 8
  %82 = load i64, ptr @H5E_CANTUPDATE_g, align 8
  %83 = call i32 (ptr, ptr, i32, i64, i64, ptr, ...) @H5E_printf_stack(ptr noundef @.str, ptr noundef @__func__.H5O__attr_rename, i32 noundef 1124, i64 noundef %81, i64 noundef %82, ptr noundef @.str.21)
  br label %84

84:                                               ; preds = %80
  store i8 1, ptr %11, align 1
  %85 = load i8, ptr %11, align 1
  %86 = trunc i8 %85 to i1
  %87 = zext i1 %86 to i8
  store i8 %87, ptr %11, align 1
  br label %88

88:                                               ; preds = %84
  br label %89

89:                                               ; preds = %88
  store i32 -1, ptr %9, align 4
  br label %212

90:                                               ; No predecessors!
  br label %91

91:                                               ; preds = %90
  br label %92

92:                                               ; preds = %91, %69
  br label %189

93:                                               ; preds = %65
  %94 = load ptr, ptr %4, align 8
  %95 = getelementptr inbounds %struct.H5O_loc_t, ptr %94, i32 0, i32 0
  %96 = load ptr, ptr %95, align 8
  %97 = getelementptr inbounds %struct.H5O_iter_ren_t, ptr %12, i32 0, i32 0
  store ptr %96, ptr %97, align 8
  %98 = load ptr, ptr %5, align 8
  %99 = getelementptr inbounds %struct.H5O_iter_ren_t, ptr %12, i32 0, i32 1
  store ptr %98, ptr %99, align 8
  %100 = load ptr, ptr %6, align 8
  %101 = getelementptr inbounds %struct.H5O_iter_ren_t, ptr %12, i32 0, i32 2
  store ptr %100, ptr %101, align 8
  %102 = getelementptr inbounds %struct.H5O_iter_ren_t, ptr %12, i32 0, i32 3
  store i8 0, ptr %102, align 8
  %103 = getelementptr inbounds %struct.H5O_mesg_operator_t, ptr %13, i32 0, i32 0
  store i32 1, ptr %103, align 8
  %104 = getelementptr inbounds %struct.H5O_mesg_operator_t, ptr %13, i32 0, i32 1
  store ptr @H5O__attr_rename_chk_cb, ptr %104, align 8
  %105 = load ptr, ptr %4, align 8
  %106 = getelementptr inbounds %struct.H5O_loc_t, ptr %105, i32 0, i32 0
  %107 = load ptr, ptr %106, align 8
  %108 = load ptr, ptr %7, align 8
  %109 = call i32 @H5O__msg_iterate_real(ptr noundef %107, ptr noundef %108, ptr noundef @H5O_MSG_ATTR, ptr noundef %13, ptr noundef %12)
  %110 = icmp slt i32 %109, 0
  br i1 %110, label %111, label %126

111:                                              ; preds = %93
  br label %112

112:                                              ; preds = %111
  br label %113

113:                                              ; preds = %112
  br label %114

114:                                              ; preds = %113
  %115 = load i64, ptr @H5E_ATTR_g, align 8
  %116 = load i64, ptr @H5E_CANTUPDATE_g, align 8
  %117 = call i32 (ptr, ptr, i32, i64, i64, ptr, ...) @H5E_printf_stack(ptr noundef @.str, ptr noundef @__func__.H5O__attr_rename, i32 noundef 1140, i64 noundef %115, i64 noundef %116, ptr noundef @.str.21)
  br label %118

118:                                              ; preds = %114
  store i8 1, ptr %11, align 1
  %119 = load i8, ptr %11, align 1
  %120 = trunc i8 %119 to i1
  %121 = zext i1 %120 to i8
  store i8 %121, ptr %11, align 1
  br label %122

122:                                              ; preds = %118
  br label %123

123:                                              ; preds = %122
  store i32 -1, ptr %9, align 4
  br label %212

124:                                              ; No predecessors!
  br label %125

125:                                              ; preds = %124
  br label %126

126:                                              ; preds = %125, %93
  %127 = getelementptr inbounds %struct.H5O_iter_ren_t, ptr %12, i32 0, i32 3
  %128 = load i8, ptr %127, align 8
  %129 = trunc i8 %128 to i1
  br i1 %129, label %130, label %145

130:                                              ; preds = %126
  br label %131

131:                                              ; preds = %130
  br label %132

132:                                              ; preds = %131
  br label %133

133:                                              ; preds = %132
  %134 = load i64, ptr @H5E_ATTR_g, align 8
  %135 = load i64, ptr @H5E_EXISTS_g, align 8
  %136 = call i32 (ptr, ptr, i32, i64, i64, ptr, ...) @H5E_printf_stack(ptr noundef @.str, ptr noundef @__func__.H5O__attr_rename, i32 noundef 1144, i64 noundef %134, i64 noundef %135, ptr noundef @.str.34)
  br label %137

137:                                              ; preds = %133
  store i8 1, ptr %11, align 1
  %138 = load i8, ptr %11, align 1
  %139 = trunc i8 %138 to i1
  %140 = zext i1 %139 to i8
  store i8 %140, ptr %11, align 1
  br label %141

141:                                              ; preds = %137
  br label %142

142:                                              ; preds = %141
  store i32 -1, ptr %9, align 4
  br label %212

143:                                              ; No predecessors!
  br label %144

144:                                              ; preds = %143
  br label %145

145:                                              ; preds = %144, %126
  %146 = getelementptr inbounds %struct.H5O_mesg_operator_t, ptr %13, i32 0, i32 0
  store i32 1, ptr %146, align 8
  %147 = getelementptr inbounds %struct.H5O_mesg_operator_t, ptr %13, i32 0, i32 1
  store ptr @H5O__attr_rename_mod_cb, ptr %147, align 8
  %148 = load ptr, ptr %4, align 8
  %149 = getelementptr inbounds %struct.H5O_loc_t, ptr %148, i32 0, i32 0
  %150 = load ptr, ptr %149, align 8
  %151 = load ptr, ptr %7, align 8
  %152 = call i32 @H5O__msg_iterate_real(ptr noundef %150, ptr noundef %151, ptr noundef @H5O_MSG_ATTR, ptr noundef %13, ptr noundef %12)
  %153 = icmp slt i32 %152, 0
  br i1 %153, label %154, label %169

154:                                              ; preds = %145
  br label %155

155:                                              ; preds = %154
  br label %156

156:                                              ; preds = %155
  br label %157

157:                                              ; preds = %156
  %158 = load i64, ptr @H5E_ATTR_g, align 8
  %159 = load i64, ptr @H5E_CANTUPDATE_g, align 8
  %160 = call i32 (ptr, ptr, i32, i64, i64, ptr, ...) @H5E_printf_stack(ptr noundef @.str, ptr noundef @__func__.H5O__attr_rename, i32 noundef 1150, i64 noundef %158, i64 noundef %159, ptr noundef @.str.21)
  br label %161

161:                                              ; preds = %157
  store i8 1, ptr %11, align 1
  %162 = load i8, ptr %11, align 1
  %163 = trunc i8 %162 to i1
  %164 = zext i1 %163 to i8
  store i8 %164, ptr %11, align 1
  br label %165

165:                                              ; preds = %161
  br label %166

166:                                              ; preds = %165
  store i32 -1, ptr %9, align 4
  br label %212

167:                                              ; No predecessors!
  br label %168

168:                                              ; preds = %167
  br label %169

169:                                              ; preds = %168, %145
  %170 = getelementptr inbounds %struct.H5O_iter_ren_t, ptr %12, i32 0, i32 3
  %171 = load i8, ptr %170, align 8
  %172 = trunc i8 %171 to i1
  br i1 %172, label %188, label %173

173:                                              ; preds = %169
  br label %174

174:                                              ; preds = %173
  br label %175

175:                                              ; preds = %174
  br label %176

176:                                              ; preds = %175
  %177 = load i64, ptr @H5E_ATTR_g, align 8
  %178 = load i64, ptr @H5E_NOTFOUND_g, align 8
  %179 = call i32 (ptr, ptr, i32, i64, i64, ptr, ...) @H5E_printf_stack(ptr noundef @.str, ptr noundef @__func__.H5O__attr_rename, i32 noundef 1154, i64 noundef %177, i64 noundef %178, ptr noundef @.str.35)
  br label %180

180:                                              ; preds = %176
  store i8 1, ptr %11, align 1
  %181 = load i8, ptr %11, align 1
  %182 = trunc i8 %181 to i1
  %183 = zext i1 %182 to i8
  store i8 %183, ptr %11, align 1
  br label %184

184:                                              ; preds = %180
  br label %185

185:                                              ; preds = %184
  store i32 -1, ptr %9, align 4
  br label %212

186:                                              ; No predecessors!
  br label %187

187:                                              ; preds = %186
  br label %188

188:                                              ; preds = %187, %169
  br label %189

189:                                              ; preds = %188, %92
  %190 = load ptr, ptr %4, align 8
  %191 = getelementptr inbounds %struct.H5O_loc_t, ptr %190, i32 0, i32 0
  %192 = load ptr, ptr %191, align 8
  %193 = load ptr, ptr %7, align 8
  %194 = call i32 @H5O_touch_oh(ptr noundef %192, ptr noundef %193, i1 noundef zeroext false)
  %195 = icmp slt i32 %194, 0
  br i1 %195, label %196, label %211

196:                                              ; preds = %189
  br label %197

197:                                              ; preds = %196
  br label %198

198:                                              ; preds = %197
  br label %199

199:                                              ; preds = %198
  %200 = load i64, ptr @H5E_ATTR_g, align 8
  %201 = load i64, ptr @H5E_CANTUPDATE_g, align 8
  %202 = call i32 (ptr, ptr, i32, i64, i64, ptr, ...) @H5E_printf_stack(ptr noundef @.str, ptr noundef @__func__.H5O__attr_rename, i32 noundef 1159, i64 noundef %200, i64 noundef %201, ptr noundef @.str.15)
  br label %203

203:                                              ; preds = %199
  store i8 1, ptr %11, align 1
  %204 = load i8, ptr %11, align 1
  %205 = trunc i8 %204 to i1
  %206 = zext i1 %205 to i8
  store i8 %206, ptr %11, align 1
  br label %207

207:                                              ; preds = %203
  br label %208

208:                                              ; preds = %207
  store i32 -1, ptr %9, align 4
  br label %212

209:                                              ; No predecessors!
  br label %210

210:                                              ; preds = %209
  br label %211

211:                                              ; preds = %210, %189
  br label %212

212:                                              ; preds = %211, %208, %185, %166, %142, %123, %89, %61, %32
  %213 = load ptr, ptr %7, align 8
  %214 = icmp ne ptr %213, null
  br i1 %214, label %215, label %232

215:                                              ; preds = %212
  %216 = load ptr, ptr %7, align 8
  %217 = call i32 @H5O_unpin(ptr noundef %216)
  %218 = icmp slt i32 %217, 0
  br i1 %218, label %219, label %232

219:                                              ; preds = %215
  br label %220

220:                                              ; preds = %219
  br label %221

221:                                              ; preds = %220
  br label %222

222:                                              ; preds = %221
  %223 = load i64, ptr @H5E_ATTR_g, align 8
  %224 = load i64, ptr @H5E_CANTUNPIN_g, align 8
  %225 = call i32 (ptr, ptr, i32, i64, i64, ptr, ...) @H5E_printf_stack(ptr noundef @.str, ptr noundef @__func__.H5O__attr_rename, i32 noundef 1163, i64 noundef %223, i64 noundef %224, ptr noundef @.str.16)
  br label %226

226:                                              ; preds = %222
  store i8 1, ptr %11, align 1
  %227 = load i8, ptr %11, align 1
  %228 = trunc i8 %227 to i1
  %229 = zext i1 %228 to i8
  store i8 %229, ptr %11, align 1
  br label %230

230:                                              ; preds = %226
  store i32 -1, ptr %9, align 4
  br label %231

231:                                              ; preds = %230
  br label %232

232:                                              ; preds = %231, %215, %212
  %233 = load i64, ptr %10, align 8
  call void @H5AC_tag(i64 noundef %233, ptr noundef null)
  %234 = load i32, ptr %9, align 4
  ret i32 %234
}