; Function Attrs: nounwind uwtable
define range(i32 -1, 1) i32 @H5O__attr_rename(ptr noundef %0, ptr noundef %1, ptr noundef %2) local_unnamed_addr #0 {
  %4 = alloca %struct.H5O_ainfo_t, align 8
  %5 = alloca i64, align 8
  %6 = alloca %struct.H5O_iter_ren_t, align 8
  %7 = alloca %struct.H5O_mesg_operator_t, align 8
  store i64 -1, ptr %5, align 8
  %8 = getelementptr inbounds i8, ptr %0, i64 8
  %9 = load i64, ptr %8, align 8
  call void @H5AC_tag(i64 noundef %9, ptr noundef nonnull %5) #9
  %10 = call ptr @H5O_pin(ptr noundef %0) #9
  %11 = icmp eq ptr %10, null
  br i1 %11, label %75, label %12

12:                                               ; preds = %3
  %13 = getelementptr inbounds i8, ptr %4, i64 24
  store i64 -1, ptr %13, align 8
  %14 = getelementptr inbounds i8, ptr %10, i64 288
  %15 = load i8, ptr %14, align 8
  %16 = icmp ugt i8 %15, 1
  br i1 %16, label %17, label %.thread

17:                                               ; preds = %12
  %18 = load ptr, ptr %0, align 8
  %19 = call i32 @H5A__get_ainfo(ptr noundef %18, ptr noundef nonnull %10, ptr noundef nonnull %4) #9
  %20 = icmp slt i32 %19, 0
  br i1 %20, label %21, label %25

21:                                               ; preds = %17
  %22 = load i64, ptr @H5E_ATTR_g, align 8
  %23 = load i64, ptr @H5E_CANTGET_g, align 8
  %24 = call i32 (ptr, ptr, i32, i64, i64, ptr, ...) @H5E_printf_stack(ptr noundef nonnull @.str, ptr noundef nonnull @__func__.H5O__attr_rename, i32 noundef 1117, i64 noundef %22, i64 noundef %23, ptr noundef nonnull @.str.3) #9
  br label %79

25:                                               ; preds = %17
  %.pr = load i64, ptr %13, align 8
  %.not = icmp eq i64 %.pr, -1
  br i1 %.not, label %.thread, label %26

26:                                               ; preds = %25
  %27 = load ptr, ptr %0, align 8
  %28 = call i32 @H5A__dense_rename(ptr noundef %27, ptr noundef nonnull %4, ptr noundef %1, ptr noundef %2) #9
  %29 = icmp slt i32 %28, 0
  br i1 %29, label %30, label %67

30:                                               ; preds = %26
  %31 = load i64, ptr @H5E_ATTR_g, align 8
  %32 = load i64, ptr @H5E_CANTUPDATE_g, align 8
  %33 = call i32 (ptr, ptr, i32, i64, i64, ptr, ...) @H5E_printf_stack(ptr noundef nonnull @.str, ptr noundef nonnull @__func__.H5O__attr_rename, i32 noundef 1124, i64 noundef %31, i64 noundef %32, ptr noundef nonnull @.str.21) #9
  br label %79

.thread:                                          ; preds = %12, %25
  %34 = load ptr, ptr %0, align 8
  store ptr %34, ptr %6, align 8
  %35 = getelementptr inbounds i8, ptr %6, i64 8
  store ptr %1, ptr %35, align 8
  %36 = getelementptr inbounds i8, ptr %6, i64 16
  store ptr %2, ptr %36, align 8
  %37 = getelementptr inbounds i8, ptr %6, i64 24
  store i8 0, ptr %37, align 8
  store i32 1, ptr %7, align 8
  %38 = getelementptr inbounds i8, ptr %7, i64 8
  store ptr @H5O__attr_rename_chk_cb, ptr %38, align 8
  %39 = call i32 @H5O__msg_iterate_real(ptr noundef %34, ptr noundef nonnull %10, ptr noundef nonnull @H5O_MSG_ATTR, ptr noundef nonnull %7, ptr noundef nonnull %6) #9
  %40 = icmp slt i32 %39, 0
  br i1 %40, label %41, label %45

41:                                               ; preds = %.thread
  %42 = load i64, ptr @H5E_ATTR_g, align 8
  %43 = load i64, ptr @H5E_CANTUPDATE_g, align 8
  %44 = call i32 (ptr, ptr, i32, i64, i64, ptr, ...) @H5E_printf_stack(ptr noundef nonnull @.str, ptr noundef nonnull @__func__.H5O__attr_rename, i32 noundef 1140, i64 noundef %42, i64 noundef %43, ptr noundef nonnull @.str.21) #9
  br label %79

45:                                               ; preds = %.thread
  %46 = load i8, ptr %37, align 8
  %47 = trunc i8 %46 to i1
  br i1 %47, label %48, label %52

48:                                               ; preds = %45
  %49 = load i64, ptr @H5E_ATTR_g, align 8
  %50 = load i64, ptr @H5E_EXISTS_g, align 8
  %51 = call i32 (ptr, ptr, i32, i64, i64, ptr, ...) @H5E_printf_stack(ptr noundef nonnull @.str, ptr noundef nonnull @__func__.H5O__attr_rename, i32 noundef 1144, i64 noundef %49, i64 noundef %50, ptr noundef nonnull @.str.34) #9
  br label %79

52:                                               ; preds = %45
  store i32 1, ptr %7, align 8
  store ptr @H5O__attr_rename_mod_cb, ptr %38, align 8
  %53 = load ptr, ptr %0, align 8
  %54 = call i32 @H5O__msg_iterate_real(ptr noundef %53, ptr noundef nonnull %10, ptr noundef nonnull @H5O_MSG_ATTR, ptr noundef nonnull %7, ptr noundef nonnull %6) #9
  %55 = icmp slt i32 %54, 0
  br i1 %55, label %56, label %60

56:                                               ; preds = %52
  %57 = load i64, ptr @H5E_ATTR_g, align 8
  %58 = load i64, ptr @H5E_CANTUPDATE_g, align 8
  %59 = call i32 (ptr, ptr, i32, i64, i64, ptr, ...) @H5E_printf_stack(ptr noundef nonnull @.str, ptr noundef nonnull @__func__.H5O__attr_rename, i32 noundef 1150, i64 noundef %57, i64 noundef %58, ptr noundef nonnull @.str.21) #9
  br label %79

60:                                               ; preds = %52
  %61 = load i8, ptr %37, align 8
  %62 = trunc i8 %61 to i1
  br i1 %62, label %67, label %63

63:                                               ; preds = %60
  %64 = load i64, ptr @H5E_ATTR_g, align 8
  %65 = load i64, ptr @H5E_NOTFOUND_g, align 8
  %66 = call i32 (ptr, ptr, i32, i64, i64, ptr, ...) @H5E_printf_stack(ptr noundef nonnull @.str, ptr noundef nonnull @__func__.H5O__attr_rename, i32 noundef 1154, i64 noundef %64, i64 noundef %65, ptr noundef nonnull @.str.35) #9
  br label %79

67:                                               ; preds = %60, %26
  %68 = load ptr, ptr %0, align 8
  %69 = call i32 @H5O_touch_oh(ptr noundef %68, ptr noundef nonnull %10, i1 noundef zeroext false) #9
  %70 = icmp slt i32 %69, 0
  br i1 %70, label %71, label %79

71:                                               ; preds = %67
  %72 = load i64, ptr @H5E_ATTR_g, align 8
  %73 = load i64, ptr @H5E_CANTUPDATE_g, align 8
  %74 = call i32 (ptr, ptr, i32, i64, i64, ptr, ...) @H5E_printf_stack(ptr noundef nonnull @.str, ptr noundef nonnull @__func__.H5O__attr_rename, i32 noundef 1159, i64 noundef %72, i64 noundef %73, ptr noundef nonnull @.str.15) #9
  br label %79

75:                                               ; preds = %3
  %76 = load i64, ptr @H5E_ATTR_g, align 8
  %77 = load i64, ptr @H5E_CANTPIN_g, align 8
  %78 = call i32 (ptr, ptr, i32, i64, i64, ptr, ...) @H5E_printf_stack(ptr noundef nonnull @.str, ptr noundef nonnull @__func__.H5O__attr_rename, i32 noundef 1110, i64 noundef %76, i64 noundef %77, ptr noundef nonnull @.str.1) #9
  br label %86

79:                                               ; preds = %67, %71, %63, %56, %48, %41, %30, %21
  %.0.ph = phi i32 [ -1, %63 ], [ -1, %56 ], [ -1, %48 ], [ -1, %41 ], [ 0, %67 ], [ -1, %71 ], [ -1, %30 ], [ -1, %21 ]
  %80 = call i32 @H5O_unpin(ptr noundef nonnull %10) #9
  %81 = icmp slt i32 %80, 0
  br i1 %81, label %82, label %86

82:                                               ; preds = %79
  %83 = load i64, ptr @H5E_ATTR_g, align 8
  %84 = load i64, ptr @H5E_CANTUNPIN_g, align 8
  %85 = call i32 (ptr, ptr, i32, i64, i64, ptr, ...) @H5E_printf_stack(ptr noundef nonnull @.str, ptr noundef nonnull @__func__.H5O__attr_rename, i32 noundef 1163, i64 noundef %83, i64 noundef %84, ptr noundef nonnull @.str.16) #9
  br label %86

86:                                               ; preds = %75, %82, %79
  %.1 = phi i32 [ -1, %82 ], [ %.0.ph, %79 ], [ -1, %75 ]
  %87 = load i64, ptr %5, align 8
  call void @H5AC_tag(i64 noundef %87, ptr noundef null) #9
  ret i32 %.1
}